; Function Attrs: nounwind uwtable
define internal i32 @php_hash_xxh32_unserialize(ptr noundef %0, i64 noundef %1, ptr noundef %2) #0 {
  %4 = getelementptr inbounds nuw i8, ptr %0, i64 8
  %5 = load ptr, ptr %4, align 8, !tbaa !15
  %6 = icmp eq i64 %1, 2
  br i1 %6, label %7, label %.thread

7:                                                ; preds = %3
  %8 = tail call i32 @php_hash_unserialize_spec(ptr noundef nonnull %0, ptr noundef %2, ptr noundef nonnull @.str.1) #16
  %9 = icmp eq i32 %8, 0
  br i1 %9, label %10, label %.thread

10:                                               ; preds = %7
  %11 = getelementptr inbounds nuw i8, ptr %5, i64 40
  %12 = load i32, ptr %11, align 4, !tbaa !26
  %13 = icmp ult i32 %12, 16
  %spec.select = select i1 %13, i32 0, i32 -2000
  br label %.thread

.thread:                                          ; preds = %10, %3, %7
  %.07 = phi i32 [ -1, %3 ], [ %8, %7 ], [ %spec.select, %10 ]
  ret i32 %.07
}